; ModuleID = 'source-C-CXX/60/1269.cpp'
source_filename = "source-C-CXX/60/1269.cpp"
target datalayout = "e-m:e-p270:32:32-p271:32:32-p272:64:64-i64:64-f80:128-n8:16:32:64-S128"
target triple = "x86_64-pc-linux-gnu"

%"class.std::ios_base::Init" = type { i8 }
%"class.std::basic_istream" = type { i32 (...)**, i64, %"class.std::basic_ios" }
%"class.std::basic_ios" = type { %"class.std::ios_base", %"class.std::basic_ostream"*, i8, i8, %"class.std::basic_streambuf"*, %"class.std::ctype"*, %"class.std::num_put"*, %"class.std::num_get"* }
%"class.std::ios_base" = type { i32 (...)**, i64, i64, i32, i32, i32, %"struct.std::ios_base::_Callback_list"*, %"struct.std::ios_base::_Words", [8 x %"struct.std::ios_base::_Words"], i32, %"struct.std::ios_base::_Words"*, %"class.std::locale" }
%"struct.std::ios_base::_Callback_list" = type { %"struct.std::ios_base::_Callback_list"*, void (i32, %"class.std::ios_base"*, i32)*, i32, i32 }
%"struct.std::ios_base::_Words" = type { i8*, i64 }
%"class.std::locale" = type { %"class.std::locale::_Impl"* }
%"class.std::locale::_Impl" = type { i32, %"class.std::locale::facet"**, i64, %"class.std::locale::facet"**, i8** }
%"class.std::locale::facet" = type <{ i32 (...)**, i32, [4 x i8] }>
%"class.std::basic_ostream" = type { i32 (...)**, %"class.std::basic_ios" }
%"class.std::basic_streambuf" = type { i32 (...)**, i8*, i8*, i8*, i8*, i8*, i8*, %"class.std::locale" }
%"class.std::ctype" = type <{ %"class.std::locale::facet.base", [4 x i8], %struct.__locale_struct*, i8, [7 x i8], i32*, i32*, i16*, i8, [256 x i8], [256 x i8], i8, [6 x i8] }>
%"class.std::locale::facet.base" = type <{ i32 (...)**, i32 }>
%struct.__locale_struct = type { [13 x %struct.__locale_data*], i16*, i32*, i32*, [13 x i8*] }
%struct.__locale_data = type opaque
%"class.std::num_put" = type { %"class.std::locale::facet.base", [4 x i8] }
%"class.std::num_get" = type { %"class.std::locale::facet.base", [4 x i8] }

@_ZStL8__ioinit = internal global %"class.std::ios_base::Init" zeroinitializer, align 1
@__dso_handle = external hidden global i8
@_ZSt3cin = external global %"class.std::basic_istream", align 8
@_ZSt4cout = external global %"class.std::basic_ostream", align 8
@llvm.global_ctors = appending global [1 x { i32, void ()*, i8* }] [{ i32, void ()*, i8* } { i32 65535, void ()* @_GLOBAL__sub_I_1269.cpp, i8* null }]

declare void @_ZNSt8ios_base4InitC1Ev(%"class.std::ios_base::Init"* nonnull align 1 dereferenceable(1)) unnamed_addr #0

; Function Attrs: nounwind
declare void @_ZNSt8ios_base4InitD1Ev(%"class.std::ios_base::Init"* nonnull align 1 dereferenceable(1)) unnamed_addr #1

; Function Attrs: nofree nounwind
declare i32 @__cxa_atexit(void (i8*)*, i8*, i8*) local_unnamed_addr #2

; Function Attrs: mustprogress nofree nosync nounwind readnone sspstrong uwtable willreturn
define dso_local i32 @_Z1fiii(i32 %0, i32 %1, i32 %2) local_unnamed_addr #3 {
  %4 = icmp slt i32 %0, 1
  br i1 %4, label %38, label %5

5:                                                ; preds = %3
  %6 = add i32 %0, -1
  %7 = and i32 %0, 7
  %8 = icmp eq i32 %7, 0
  br i1 %8, label %18, label %9

9:                                                ; preds = %5, %9
  %10 = phi i32 [ %15, %9 ], [ %2, %5 ]
  %11 = phi i32 [ %10, %9 ], [ %1, %5 ]
  %12 = phi i32 [ %14, %9 ], [ %0, %5 ]
  %13 = phi i32 [ %16, %9 ], [ %7, %5 ]
  %14 = add nsw i32 %12, -1
  %15 = add nsw i32 %10, %11
  %16 = add i32 %13, -1
  %17 = icmp eq i32 %16, 0
  br i1 %17, label %18, label %9, !llvm.loop !5

18:                                               ; preds = %9, %5
  %19 = phi i32 [ undef, %5 ], [ %10, %9 ]
  %20 = phi i32 [ %2, %5 ], [ %15, %9 ]
  %21 = phi i32 [ %1, %5 ], [ %10, %9 ]
  %22 = phi i32 [ %0, %5 ], [ %14, %9 ]
  %23 = icmp ult i32 %6, 7
  br i1 %23, label %38, label %24

24:                                               ; preds = %18, %24
  %25 = phi i32 [ %36, %24 ], [ %20, %18 ]
  %26 = phi i32 [ %34, %24 ], [ %21, %18 ]
  %27 = phi i32 [ %35, %24 ], [ %22, %18 ]
  %28 = add nsw i32 %25, %26
  %29 = add nsw i32 %28, %25
  %30 = add nsw i32 %29, %28
  %31 = add nsw i32 %30, %29
  %32 = add nsw i32 %31, %30
  %33 = add nsw i32 %32, %31
  %34 = add nsw i32 %33, %32
  %35 = add nsw i32 %27, -8
  %36 = add nsw i32 %34, %33
  %37 = icmp slt i32 %27, 9
  br i1 %37, label %38, label %24

38:                                               ; preds = %18, %24, %3
  %39 = phi i32 [ %1, %3 ], [ %19, %18 ], [ %34, %24 ]
  ret i32 %39
}

; Function Attrs: mustprogress norecurse sspstrong uwtable
define dso_local i32 @main() local_unnamed_addr #4 {
  %1 = alloca i32, align 4
  %2 = alloca i32, align 4
  %3 = bitcast i32* %1 to i8*
  call void @llvm.lifetime.start.p0i8(i64 4, i8* nonnull %3) #8
  %4 = bitcast i32* %2 to i8*
  call void @llvm.lifetime.start.p0i8(i64 4, i8* nonnull %4) #8
  %5 = call nonnull align 8 dereferenceable(16) %"class.std::basic_istream"* @_ZNSirsERi(%"class.std::basic_istream"* nonnull align 8 dereferenceable(16) @_ZSt3cin, i32* nonnull align 4 dereferenceable(4) %1)
  %6 = load i32, i32* %1, align 4, !tbaa !7
  %7 = icmp slt i32 %6, 1
  br i1 %7, label %81, label %8

8:                                                ; preds = %0, %74
  %9 = phi i32 [ %78, %74 ], [ 1, %0 ]
  %10 = call nonnull align 8 dereferenceable(16) %"class.std::basic_istream"* @_ZNSirsERi(%"class.std::basic_istream"* nonnull align 8 dereferenceable(16) @_ZSt3cin, i32* nonnull align 4 dereferenceable(4) %2)
  %11 = load i32, i32* %2, align 4, !tbaa !7
  %12 = icmp slt i32 %11, 2
  br i1 %12, label %46, label %13

13:                                               ; preds = %8
  %14 = add i32 %11, -1
  %15 = add i32 %11, -2
  %16 = and i32 %14, 7
  %17 = icmp ult i32 %15, 7
  br i1 %17, label %34, label %18

18:                                               ; preds = %13
  %19 = and i32 %14, -8
  br label %20

20:                                               ; preds = %20, %18
  %21 = phi i32 [ 1, %18 ], [ %31, %20 ]
  %22 = phi i32 [ 1, %18 ], [ %30, %20 ]
  %23 = phi i32 [ %19, %18 ], [ %32, %20 ]
  %24 = add nsw i32 %22, %21
  %25 = add nsw i32 %21, %24
  %26 = add nsw i32 %24, %25
  %27 = add nsw i32 %25, %26
  %28 = add nsw i32 %26, %27
  %29 = add nsw i32 %27, %28
  %30 = add nsw i32 %28, %29
  %31 = add nsw i32 %29, %30
  %32 = add i32 %23, -8
  %33 = icmp eq i32 %32, 0
  br i1 %33, label %34, label %20

34:                                               ; preds = %20, %13
  %35 = phi i32 [ undef, %13 ], [ %30, %20 ]
  %36 = phi i32 [ 1, %13 ], [ %31, %20 ]
  %37 = phi i32 [ 1, %13 ], [ %30, %20 ]
  %38 = icmp eq i32 %16, 0
  br i1 %38, label %46, label %39

39:                                               ; preds = %34, %39
  %40 = phi i32 [ %43, %39 ], [ %36, %34 ]
  %41 = phi i32 [ %40, %39 ], [ %37, %34 ]
  %42 = phi i32 [ %44, %39 ], [ %16, %34 ]
  %43 = add nsw i32 %41, %40
  %44 = add i32 %42, -1
  %45 = icmp eq i32 %44, 0
  br i1 %45, label %46, label %39, !llvm.loop !11

46:                                               ; preds = %34, %39, %8
  %47 = phi i32 [ 1, %8 ], [ %35, %34 ], [ %40, %39 ]
  %48 = call nonnull align 8 dereferenceable(8) %"class.std::basic_ostream"* @_ZNSolsEi(%"class.std::basic_ostream"* nonnull align 8 dereferenceable(8) @_ZSt4cout, i32 %47)
  %49 = bitcast %"class.std::basic_ostream"* %48 to i8**
  %50 = load i8*, i8** %49, align 8, !tbaa !12
  %51 = getelementptr i8, i8* %50, i64 -24
  %52 = bitcast i8* %51 to i64*
  %53 = load i64, i64* %52, align 8
  %54 = bitcast %"class.std::basic_ostream"* %48 to i8*
  %55 = add nsw i64 %53, 240
  %56 = getelementptr inbounds i8, i8* %54, i64 %55
  %57 = bitcast i8* %56 to %"class.std::ctype"**
  %58 = load %"class.std::ctype"*, %"class.std::ctype"** %57, align 8, !tbaa !14
  %59 = icmp eq %"class.std::ctype"* %58, null
  br i1 %59, label %60, label %61

60:                                               ; preds = %46
  call void @_ZSt16__throw_bad_castv() #9
  unreachable

61:                                               ; preds = %46
  %62 = getelementptr inbounds %"class.std::ctype", %"class.std::ctype"* %58, i64 0, i32 8
  %63 = load i8, i8* %62, align 8, !tbaa !18
  %64 = icmp eq i8 %63, 0
  br i1 %64, label %68, label %65

65:                                               ; preds = %61
  %66 = getelementptr inbounds %"class.std::ctype", %"class.std::ctype"* %58, i64 0, i32 9, i64 10
  %67 = load i8, i8* %66, align 1, !tbaa !20
  br label %74

68:                                               ; preds = %61
  call void @_ZNKSt5ctypeIcE13_M_widen_initEv(%"class.std::ctype"* nonnull align 8 dereferenceable(570) %58)
  %69 = bitcast %"class.std::ctype"* %58 to i8 (%"class.std::ctype"*, i8)***
  %70 = load i8 (%"class.std::ctype"*, i8)**, i8 (%"class.std::ctype"*, i8)*** %69, align 8, !tbaa !12
  %71 = getelementptr inbounds i8 (%"class.std::ctype"*, i8)*, i8 (%"class.std::ctype"*, i8)** %70, i64 6
  %72 = load i8 (%"class.std::ctype"*, i8)*, i8 (%"class.std::ctype"*, i8)** %71, align 8
  %73 = call signext i8 %72(%"class.std::ctype"* nonnull align 8 dereferenceable(570) %58, i8 signext 10)
  br label %74

74:                                               ; preds = %65, %68
  %75 = phi i8 [ %67, %65 ], [ %73, %68 ]
  %76 = call nonnull align 8 dereferenceable(8) %"class.std::basic_ostream"* @_ZNSo3putEc(%"class.std::basic_ostream"* nonnull align 8 dereferenceable(8) %48, i8 signext %75)
  %77 = call nonnull align 8 dereferenceable(8) %"class.std::basic_ostream"* @_ZNSo5flushEv(%"class.std::basic_ostream"* nonnull align 8 dereferenceable(8) %76)
  %78 = add nuw nsw i32 %9, 1
  %79 = load i32, i32* %1, align 4, !tbaa !7
  %80 = icmp slt i32 %9, %79
  br i1 %80, label %8, label %81, !llvm.loop !21

81:                                               ; preds = %74, %0
  call void @llvm.lifetime.end.p0i8(i64 4, i8* nonnull %4) #8
  call void @llvm.lifetime.end.p0i8(i64 4, i8* nonnull %3) #8
  ret i32 0
}

; Function Attrs: argmemonly mustprogress nofree nosync nounwind willreturn
declare void @llvm.lifetime.start.p0i8(i64 immarg, i8* nocapture) #5

declare nonnull align 8 dereferenceable(16) %"class.std::basic_istream"* @_ZNSirsERi(%"class.std::basic_istream"* nonnull align 8 dereferenceable(16), i32* nonnull align 4 dereferenceable(4)) local_unnamed_addr #0

declare nonnull align 8 dereferenceable(8) %"class.std::basic_ostream"* @_ZNSolsEi(%"class.std::basic_ostream"* nonnull align 8 dereferenceable(8), i32) local_unnamed_addr #0

; Function Attrs: argmemonly mustprogress nofree nosync nounwind willreturn
declare void @llvm.lifetime.end.p0i8(i64 immarg, i8* nocapture) #5

declare nonnull align 8 dereferenceable(8) %"class.std::basic_ostream"* @_ZNSo3putEc(%"class.std::basic_ostream"* nonnull align 8 dereferenceable(8), i8 signext) local_unnamed_addr #0

declare nonnull align 8 dereferenceable(8) %"class.std::basic_ostream"* @_ZNSo5flushEv(%"class.std::basic_ostream"* nonnull align 8 dereferenceable(8)) local_unnamed_addr #0

; Function Attrs: noreturn
declare void @_ZSt16__throw_bad_castv() local_unnamed_addr #6

declare void @_ZNKSt5ctypeIcE13_M_widen_initEv(%"class.std::ctype"* nonnull align 8 dereferenceable(570)) local_unnamed_addr #0

; Function Attrs: sspstrong uwtable
define internal void @_GLOBAL__sub_I_1269.cpp() #7 section ".text.startup" {
  tail call void @_ZNSt8ios_base4InitC1Ev(%"class.std::ios_base::Init"* nonnull align 1 dereferenceable(1) @_ZStL8__ioinit)
  %1 = tail call i32 @__cxa_atexit(void (i8*)* bitcast (void (%"class.std::ios_base::Init"*)* @_ZNSt8ios_base4InitD1Ev to void (i8*)*), i8* getelementptr inbounds (%"class.std::ios_base::Init", %"class.std::ios_base::Init"* @_ZStL8__ioinit, i64 0, i32 0), i8* nonnull @__dso_handle) #8
  ret void
}


!llvm.module.flags = !{!0, !1, !2, !3}
!llvm.ident = !{!4}

!0 = !{i32 1, !"wchar_size", i32 4}
!1 = !{i32 7, !"PIC Level", i32 2}
!2 = !{i32 7, !"PIE Level", i32 2}
!3 = !{i32 7, !"uwtable", i32 1}
!4 = !{!"clang version 13.0.0"}
!5 = distinct !{!5, !6}
!6 = !{!"llvm.loop.unroll.disable"}
!7 = !{!8, !8, i64 0}
!8 = !{!"int", !9, i64 0}
!9 = !{!"omnipotent char", !10, i64 0}
!10 = !{!"Simple C++ TBAA"}
!11 = distinct !{!11, !6}
!12 = !{!13, !13, i64 0}
!13 = !{!"vtable pointer", !10, i64 0}
!14 = !{!15, !16, i64 240}
!15 = !{!"_ZTSSt9basic_iosIcSt11char_traitsIcEE", !16, i64 216, !9, i64 224, !17, i64 225, !16, i64 232, !16, i64 240, !16, i64 248, !16, i64 256}
!16 = !{!"any pointer", !9, i64 0}
!17 = !{!"bool", !9, i64 0}
!18 = !{!19, !9, i64 56}
!19 = !{!"_ZTSSt5ctypeIcE", !16, i64 16, !17, i64 24, !16, i64 32, !16, i64 40, !16, i64 48, !9, i64 56, !9, i64 57, !9, i64 313, !9, i64 569}
!20 = !{!9, !9, i64 0}
!21 = distinct !{!21, !22}
!22 = !{!"llvm.loop.mustprogress"}
